target datalayout = "e-m:e-p270:32:32-p271:32:32-p272:64:64-i64:64-i128:128-f80:128-n8:16:32:64-S128"
target triple = "x86_64-pc-linux-gnu"

@.str = private unnamed_addr constant [4 x i8] c"XOR\00", align 1
@.str.1 = private unnamed_addr constant [8 x i8] c"AES 128\00", align 1
@.str.2 = private unnamed_addr constant [8 x i8] c"LEA 128\00", align 1
@.str.3 = private unnamed_addr constant [8 x i8] c"AES 256\00", align 1
@.str.4 = private unnamed_addr constant [8 x i8] c"LEA 256\00", align 1
@.str.5 = private unnamed_addr constant [17 x i8] c"<unknown method>\00", align 1

; Function Attrs: nounwind uwtable
define ptr @getEncryptName(i8 noundef zeroext %0) #0 {
  %2 = alloca i8, align 1
  %3 = alloca ptr, align 8
  store i8 %0, ptr %2, align 1
  store ptr null, ptr %3, align 8
  %4 = load i8, ptr %2, align 1
  %5 = zext i8 %4 to i32
  switch i32 %5, label %11 [
    i32 0, label %6
    i32 1, label %7
    i32 16, label %8
    i32 2, label %9
    i32 32, label %10
  ]

6:                                                ; preds = %1
  store ptr @.str, ptr %3, align 8
  br label %12

7:                                                ; preds = %1
  store ptr @.str.1, ptr %3, align 8
  br label %12

8:                                                ; preds = %1
  store ptr @.str.2, ptr %3, align 8
  br label %12

9:                                                ; preds = %1
  store ptr @.str.3, ptr %3, align 8
  br label %12

10:                                               ; preds = %1
  store ptr @.str.4, ptr %3, align 8
  br label %12

11:                                               ; preds = %1
  store ptr @.str.5, ptr %3, align 8
  br label %12

12:                                               ; preds = %11, %10, %9, %8, %7, %6
  %13 = load ptr, ptr %3, align 8
  ret ptr %13
}