; Function Attrs: mustprogress nofree norecurse nosync nounwind willreturn memory(none) uwtable
define noundef nonnull ptr @getEncryptName(i8 noundef zeroext %0) local_unnamed_addr #0 {
  switch i8 %0, label %6 [
    i8 0, label %7
    i8 1, label %2
    i8 16, label %3
    i8 2, label %4
    i8 32, label %5
  ]

2:                                                ; preds = %1
  br label %7

3:                                                ; preds = %1
  br label %7

4:                                                ; preds = %1
  br label %7

5:                                                ; preds = %1
  br label %7

6:                                                ; preds = %1
  br label %7

7:                                                ; preds = %1, %6, %5, %4, %3, %2
  %.0 = phi ptr [ @.str.5, %6 ], [ @.str.4, %5 ], [ @.str.3, %4 ], [ @.str.2, %3 ], [ @.str.1, %2 ], [ @.str, %1 ]
  ret ptr %.0
}